; ModuleID = '22/230.c'
source_filename = "22/230.c"
target datalayout = "e-m:e-p270:32:32-p271:32:32-p272:64:64-i64:64-f80:128-n8:16:32:64-S128"
target triple = "x86_64-pc-linux-gnu"

@.str = private unnamed_addr constant [3 x i8] c"%d\00", align 1
@.str.1 = private unnamed_addr constant [4 x i8] c"No\0A\00", align 1
@.str.2 = private unnamed_addr constant [4 x i8] c"%d\0A\00", align 1

; Function Attrs: noinline nounwind uwtable
define dso_local void @main() #0 {
  %1 = alloca i32, align 4
  %2 = alloca i32, align 4
  %3 = alloca i32, align 4
  %4 = alloca [300 x i32], align 16
  %5 = alloca i32, align 4
  %6 = alloca i32, align 4
  %7 = alloca i8, align 1
  store i32 0, i32* %1, align 4
  br label %8

8:                                                ; preds = %17, %0
  %9 = load i32, i32* %1, align 4
  %10 = sext i32 %9 to i64
  %11 = getelementptr inbounds [300 x i32], [300 x i32]* %4, i64 0, i64 %10
  %12 = call i32 (i8*, ...) @__isoc99_scanf(i8* getelementptr inbounds ([3 x i8], [3 x i8]* @.str, i64 0, i64 0), i32* %11)
  %13 = call i32 @getchar()
  %14 = trunc i32 %13 to i8
  store i8 %14, i8* %7, align 1
  %15 = load i32, i32* %1, align 4
  %16 = add nsw i32 %15, 1
  store i32 %16, i32* %1, align 4
  br label %17

17:                                               ; preds = %8
  %18 = load i8, i8* %7, align 1
  %19 = sext i8 %18 to i32
  %20 = icmp ne i32 %19, 10
  br i1 %20, label %8, label %21

21:                                               ; preds = %17
  %22 = load i32, i32* %1, align 4
  store i32 %22, i32* %3, align 4
  %23 = getelementptr inbounds [300 x i32], [300 x i32]* %4, i64 0, i64 0
  %24 = load i32, i32* %23, align 16
  store i32 %24, i32* %5, align 4
  store i32 0, i32* %1, align 4
  br label %25

25:                                               ; preds = %45, %21
  %26 = load i32, i32* %1, align 4
  %27 = load i32, i32* %3, align 4
  %28 = icmp slt i32 %26, %27
  br i1 %28, label %29, label %48

29:                                               ; preds = %25
  %30 = load i32, i32* %1, align 4
  %31 = sext i32 %30 to i64
  %32 = getelementptr inbounds [300 x i32], [300 x i32]* %4, i64 0, i64 %31
  %33 = load i32, i32* %32, align 4
  %34 = load i32, i32* %5, align 4
  %35 = icmp sgt i32 %33, %34
  br i1 %35, label %36, label %41

36:                                               ; preds = %29
  %37 = load i32, i32* %1, align 4
  %38 = sext i32 %37 to i64
  %39 = getelementptr inbounds [300 x i32], [300 x i32]* %4, i64 0, i64 %38
  %40 = load i32, i32* %39, align 4
  br label %43

41:                                               ; preds = %29
  %42 = load i32, i32* %5, align 4
  br label %43

43:                                               ; preds = %41, %36
  %44 = phi i32 [ %40, %36 ], [ %42, %41 ]
  store i32 %44, i32* %5, align 4
  br label %45

45:                                               ; preds = %43
  %46 = load i32, i32* %1, align 4
  %47 = add nsw i32 %46, 1
  store i32 %47, i32* %1, align 4
  br label %25

48:                                               ; preds = %25
  store i32 1, i32* %6, align 4
  store i32 0, i32* %1, align 4
  br label %49

49:                                               ; preds = %62, %48
  %50 = load i32, i32* %1, align 4
  %51 = load i32, i32* %3, align 4
  %52 = icmp slt i32 %50, %51
  br i1 %52, label %53, label %65

53:                                               ; preds = %49
  %54 = load i32, i32* %1, align 4
  %55 = sext i32 %54 to i64
  %56 = getelementptr inbounds [300 x i32], [300 x i32]* %4, i64 0, i64 %55
  %57 = load i32, i32* %56, align 4
  %58 = load i32, i32* %5, align 4
  %59 = icmp ne i32 %57, %58
  br i1 %59, label %60, label %61

60:                                               ; preds = %53
  store i32 0, i32* %6, align 4
  br label %65

61:                                               ; preds = %53
  br label %62

62:                                               ; preds = %61
  %63 = load i32, i32* %1, align 4
  %64 = add nsw i32 %63, 1
  store i32 %64, i32* %1, align 4
  br label %49

65:                                               ; preds = %60, %49
  %66 = load i32, i32* %6, align 4
  %67 = icmp eq i32 %66, 1
  br i1 %67, label %68, label %70

68:                                               ; preds = %65
  %69 = call i32 (i8*, ...) @printf(i8* getelementptr inbounds ([4 x i8], [4 x i8]* @.str.1, i64 0, i64 0))
  br label %129

70:                                               ; preds = %65
  store i32 0, i32* %1, align 4
  br label %71

71:                                               ; preds = %125, %70
  %72 = load i32, i32* %1, align 4
  %73 = load i32, i32* %3, align 4
  %74 = icmp slt i32 %72, %73
  br i1 %74, label %75, label %128

75:                                               ; preds = %71
  store i32 1, i32* %6, align 4
  store i32 0, i32* %2, align 4
  br label %76

76:                                               ; preds = %112, %75
  %77 = load i32, i32* %2, align 4
  %78 = load i32, i32* %3, align 4
  %79 = icmp slt i32 %77, %78
  br i1 %79, label %80, label %115

80:                                               ; preds = %76
  %81 = load i32, i32* %2, align 4
  %82 = sext i32 %81 to i64
  %83 = getelementptr inbounds [300 x i32], [300 x i32]* %4, i64 0, i64 %82
  %84 = load i32, i32* %83, align 4
  %85 = load i32, i32* %5, align 4
  %86 = icmp eq i32 %84, %85
  br i1 %86, label %87, label %88

87:                                               ; preds = %80
  br label %112

88:                                               ; preds = %80
  %89 = load i32, i32* %5, align 4
  %90 = load i32, i32* %1, align 4
  %91 = sext i32 %90 to i64
  %92 = getelementptr inbounds [300 x i32], [300 x i32]* %4, i64 0, i64 %91
  %93 = load i32, i32* %92, align 4
  %94 = sub nsw i32 %89, %93
  %95 = load i32, i32* %5, align 4
  %96 = load i32, i32* %2, align 4
  %97 = sext i32 %96 to i64
  %98 = getelementptr inbounds [300 x i32], [300 x i32]* %4, i64 0, i64 %97
  %99 = load i32, i32* %98, align 4
  %100 = sub nsw i32 %95, %99
  %101 = icmp sle i32 %94, %100
  br i1 %101, label %102, label %110

102:                                              ; preds = %88
  %103 = load i32, i32* %1, align 4
  %104 = sext i32 %103 to i64
  %105 = getelementptr inbounds [300 x i32], [300 x i32]* %4, i64 0, i64 %104
  %106 = load i32, i32* %105, align 4
  %107 = load i32, i32* %5, align 4
  %108 = icmp ne i32 %106, %107
  br i1 %108, label %109, label %110

109:                                              ; preds = %102
  store i32 1, i32* %6, align 4
  br label %111

110:                                              ; preds = %102, %88
  store i32 0, i32* %6, align 4
  br label %115

111:                                              ; preds = %109
  br label %112

112:                                              ; preds = %111, %87
  %113 = load i32, i32* %2, align 4
  %114 = add nsw i32 %113, 1
  store i32 %114, i32* %2, align 4
  br label %76

115:                                              ; preds = %110, %76
  %116 = load i32, i32* %6, align 4
  %117 = icmp eq i32 %116, 1
  br i1 %117, label %118, label %124

118:                                              ; preds = %115
  %119 = load i32, i32* %1, align 4
  %120 = sext i32 %119 to i64
  %121 = getelementptr inbounds [300 x i32], [300 x i32]* %4, i64 0, i64 %120
  %122 = load i32, i32* %121, align 4
  %123 = call i32 (i8*, ...) @printf(i8* getelementptr inbounds ([4 x i8], [4 x i8]* @.str.2, i64 0, i64 0), i32 %122)
  br label %128

124:                                              ; preds = %115
  br label %125

125:                                              ; preds = %124
  %126 = load i32, i32* %1, align 4
  %127 = add nsw i32 %126, 1
  store i32 %127, i32* %1, align 4
  br label %71

128:                                              ; preds = %118, %71
  br label %129

129:                                              ; preds = %128, %68
  ret void
}

declare dso_local i32 @__isoc99_scanf(i8*, ...) #1

declare dso_local i32 @getchar() #1

declare dso_local i32 @printf(i8*, ...) #1


!llvm.module.flags = !{!0}
!llvm.ident = !{!1}

!0 = !{i32 1, !"wchar_size", i32 4}
!1 = !{!"clang version 10.0.0-4ubuntu1 "}
